; ModuleID = 'bench/gromacs/original/mdmodule.cpp.ll'
source_filename = "bench/gromacs/original/mdmodule.cpp.ll"
target datalayout = "e-m:e-p270:32:32-p271:32:32-p272:64:64-i64:64-i128:128-f80:128-n8:16:32:64-S128"
target triple = "x86_64-pc-linux-gnu"

%"class.std::shared_ptr" = type { %"class.std::__shared_ptr" }
%"class.std::__shared_ptr" = type { ptr, %"class.std::__shared_count" }
%"class.std::__shared_count" = type { ptr }

@_ZTVN6gmxapi8MDModuleE = unnamed_addr constant { [6 x ptr] } { [6 x ptr] [ptr null, ptr @_ZTIN6gmxapi8MDModuleE, ptr @_ZN6gmxapi8MDModuleD1Ev, ptr @_ZN6gmxapi8MDModuleD0Ev, ptr @_ZNK6gmxapi8MDModule4nameEv, ptr @_ZN6gmxapi8MDModule12getRestraintEv] }, align 8
@_ZTVN10__cxxabiv117__class_type_infoE = external global [0 x ptr]
@_ZTSN6gmxapi8MDModuleE = constant [19 x i8] c"N6gmxapi8MDModuleE\00", align 1
@_ZTIN6gmxapi8MDModuleE = constant { ptr, ptr } { ptr getelementptr inbounds (ptr, ptr @_ZTVN10__cxxabiv117__class_type_infoE, i64 2), ptr @_ZTSN6gmxapi8MDModuleE }, align 8
@.str = private unnamed_addr constant [9 x i8] c"MDModule\00", align 1

@_ZN6gmxapi8MDModuleD1Ev = unnamed_addr alias void (ptr), ptr @_ZN6gmxapi8MDModuleD2Ev

; Function Attrs: mustprogress nounwind uwtable
define void @_ZN6gmxapi8MDModuleD0Ev(ptr noundef nonnull align 8 dereferenceable(8) %0) unnamed_addr #0 align 2 {
  tail call void @_ZN6gmxapi8MDModuleD1Ev(ptr noundef nonnull align 8 dereferenceable(8) %0) #5
  tail call void @_ZdlPv(ptr noundef nonnull %0) #6
  ret void
}

; Function Attrs: mustprogress nofree norecurse nosync nounwind willreturn memory(none) uwtable
define noundef nonnull ptr @_ZNK6gmxapi8MDModule4nameEv(ptr nocapture nonnull readnone align 8 %0) unnamed_addr #1 align 2 {
  ret ptr @.str
}

; Function Attrs: mustprogress nofree norecurse nosync nounwind willreturn memory(argmem: write) uwtable
define void @_ZN6gmxapi8MDModule12getRestraintEv(ptr dead_on_unwind noalias nocapture writable writeonly sret(%"class.std::shared_ptr") align 8 %0, ptr nocapture nonnull readnone align 8 %1) unnamed_addr #2 align 2 {
  tail call void @llvm.memset.p0.i64(ptr noundef nonnull align 8 dereferenceable(16) %0, i8 0, i64 16, i1 false)
  ret void
}

; Function Attrs: mustprogress nofree norecurse nosync nounwind willreturn memory(none) uwtable
define void @_ZN6gmxapi8MDModuleD2Ev(ptr nocapture nonnull readnone align 8 %0) unnamed_addr #1 align 2 {
  ret void
}

; Function Attrs: nobuiltin nounwind
declare void @_ZdlPv(ptr noundef) local_unnamed_addr #3

; Function Attrs: nocallback nofree nounwind willreturn memory(argmem: write)
declare void @llvm.memset.p0.i64(ptr nocapture writeonly, i8, i64, i1 immarg) #4


!llvm.module.flags = !{!0, !1, !2, !3, !4}

!0 = !{i32 1, !"wchar_size", i32 4}
!1 = !{i32 7, !"openmp", i32 51}
!2 = !{i32 8, !"PIC Level", i32 2}
!3 = !{i32 7, !"uwtable", i32 2}
!4 = !{i32 7, !"frame-pointer", i32 2}
